target datalayout = "e-m:e-p270:32:32-p271:32:32-p272:64:64-i64:64-i128:128-f80:128-n8:16:32:64-S128"
target triple = "x86_64-pc-linux-gnu"

%class.InterpreterOopMap = type { ptr, i32, i32, i16, i32, [4 x i64] }

; Function Attrs: mustprogress nounwind uwtable
define linkonce_odr hidden noundef i64 @_ZNK17InterpreterOopMap14mask_word_sizeEv(ptr noundef nonnull align 8 dereferenceable(56) %0) #1 comdat align 2 {
  %2 = alloca ptr, align 8
  store ptr %0, ptr %2, align 8
  %3 = load ptr, ptr %2, align 8
  %4 = call noundef i32 @_ZNK17InterpreterOopMap9mask_sizeEv(ptr noundef nonnull align 8 dereferenceable(56) %3)
  %5 = add nsw i32 %4, 64
  %6 = sub nsw i32 %5, 1
  %7 = sdiv i32 %6, 64
  %8 = sext i32 %7 to i64
  ret i64 %8
}

; Function Attrs: mustprogress nounwind uwtable
define linkonce_odr hidden noundef i32 @_ZNK17InterpreterOopMap8num_oopsEv(ptr noundef nonnull align 8 dereferenceable(56) %0) #1 comdat align 2 {
  %2 = alloca ptr, align 8
  store ptr %0, ptr %2, align 8
  %3 = load ptr, ptr %2, align 8
  %4 = getelementptr inbounds %class.InterpreterOopMap, ptr %3, i32 0, i32 4
  %5 = load i32, ptr %4, align 4
  ret i32 %5
}

; Function Attrs: mustprogress nounwind uwtable
define linkonce_odr hidden void @_ZN17InterpreterOopMap25set_expression_stack_sizeEi(ptr noundef nonnull align 8 dereferenceable(56) %0, i32 noundef %1) #1 comdat align 2 {
  %3 = alloca ptr, align 8
  %4 = alloca i32, align 4
  store ptr %0, ptr %3, align 8
  store i32 %1, ptr %4, align 4
  %5 = load ptr, ptr %3, align 8
  %6 = load i32, ptr %4, align 4
  %7 = getelementptr inbounds %class.InterpreterOopMap, ptr %5, i32 0, i32 2
  store i32 %6, ptr %7, align 4
  ret void
}

; Function Attrs: mustprogress nounwind uwtable
define linkonce_odr hidden noundef i32 @_ZNK17InterpreterOopMap21expression_stack_sizeEv(ptr noundef nonnull align 8 dereferenceable(56) %0) #1 comdat align 2 {
  %2 = alloca ptr, align 8
  store ptr %0, ptr %2, align 8
  %3 = load ptr, ptr %2, align 8
  %4 = getelementptr inbounds %class.InterpreterOopMap, ptr %3, i32 0, i32 2
  %5 = load i32, ptr %4, align 4
  ret i32 %5
}

; Function Attrs: mustprogress nounwind uwtable
define linkonce_odr hidden void @_ZN17InterpreterOopMap13set_mask_sizeEi(ptr noundef nonnull align 8 dereferenceable(56) %0, i32 noundef %1) #1 comdat align 2 {
  %3 = alloca ptr, align 8
  %4 = alloca i32, align 4
  store ptr %0, ptr %3, align 8
  store i32 %1, ptr %4, align 4
  %5 = load ptr, ptr %3, align 8
  %6 = load i32, ptr %4, align 4
  %7 = getelementptr inbounds %class.InterpreterOopMap, ptr %5, i32 0, i32 1
  store i32 %6, ptr %7, align 8
  ret void
}

; Function Attrs: mustprogress nounwind uwtable
define linkonce_odr hidden noundef i32 @_ZNK17InterpreterOopMap9mask_sizeEv(ptr noundef nonnull align 8 dereferenceable(56) %0) #1 comdat align 2 {
  %2 = alloca ptr, align 8
  store ptr %0, ptr %2, align 8
  %3 = load ptr, ptr %2, align 8
  %4 = getelementptr inbounds %class.InterpreterOopMap, ptr %3, i32 0, i32 1
  %5 = load i32, ptr %4, align 8
  ret i32 %5
}

; Function Attrs: mustprogress nounwind uwtable
define linkonce_odr hidden void @_ZN17InterpreterOopMap7set_bciEt(ptr noundef nonnull align 8 dereferenceable(56) %0, i16 noundef zeroext %1) #1 comdat align 2 {
  %3 = alloca ptr, align 8
  %4 = alloca i16, align 2
  store ptr %0, ptr %3, align 8
  store i16 %1, ptr %4, align 2
  %5 = load ptr, ptr %3, align 8
  %6 = load i16, ptr %4, align 2
  %7 = getelementptr inbounds %class.InterpreterOopMap, ptr %5, i32 0, i32 3
  store i16 %6, ptr %7, align 8
  ret void
}

; Function Attrs: mustprogress nounwind uwtable
define linkonce_odr hidden noundef zeroext i16 @_ZNK17InterpreterOopMap3bciEv(ptr noundef nonnull align 8 dereferenceable(56) %0) #1 comdat align 2 {
  %2 = alloca ptr, align 8
  store ptr %0, ptr %2, align 8
  %3 = load ptr, ptr %2, align 8
  %4 = getelementptr inbounds %class.InterpreterOopMap, ptr %3, i32 0, i32 3
  %5 = load i16, ptr %4, align 8
  ret i16 %5
}

; Function Attrs: mustprogress nounwind uwtable
define linkonce_odr hidden void @_ZN17InterpreterOopMap10set_methodEP6Method(ptr noundef nonnull align 8 dereferenceable(56) %0, ptr noundef %1) #1 comdat align 2 {
  %3 = alloca ptr, align 8
  %4 = alloca ptr, align 8
  store ptr %0, ptr %3, align 8
  store ptr %1, ptr %4, align 8
  %5 = load ptr, ptr %3, align 8
  %6 = load ptr, ptr %4, align 8
  %7 = getelementptr inbounds %class.InterpreterOopMap, ptr %5, i32 0, i32 0
  store ptr %6, ptr %7, align 8
  ret void
}

; Function Attrs: mustprogress nounwind uwtable
define linkonce_odr hidden noundef ptr @_ZNK17InterpreterOopMap6methodEv(ptr noundef nonnull align 8 dereferenceable(56) %0) #1 comdat align 2 {
  %2 = alloca ptr, align 8
  store ptr %0, ptr %2, align 8
  %3 = load ptr, ptr %2, align 8
  %4 = getelementptr inbounds %class.InterpreterOopMap, ptr %3, i32 0, i32 0
  %5 = load ptr, ptr %4, align 8
  ret ptr %5
}

; Function Attrs: mustprogress nounwind uwtable
define hidden void @_ZN17InterpreterOopMap9copy_fromEPK16OopMapCacheEntry(ptr noundef nonnull align 8 dereferenceable(56) %0, ptr noundef %1) #1 align 2 {
  %3 = alloca ptr, align 8
  %4 = alloca ptr, align 8
  store ptr %0, ptr %3, align 8
  store ptr %1, ptr %4, align 8
  %5 = load ptr, ptr %3, align 8
  %6 = load ptr, ptr %4, align 8
  %7 = call noundef ptr @_ZNK17InterpreterOopMap6methodEv(ptr noundef nonnull align 8 dereferenceable(56) %6)
  call void @_ZN17InterpreterOopMap10set_methodEP6Method(ptr noundef nonnull align 8 dereferenceable(56) %5, ptr noundef %7)
  %8 = load ptr, ptr %4, align 8
  %9 = call noundef zeroext i16 @_ZNK17InterpreterOopMap3bciEv(ptr noundef nonnull align 8 dereferenceable(56) %8)
  call void @_ZN17InterpreterOopMap7set_bciEt(ptr noundef nonnull align 8 dereferenceable(56) %5, i16 noundef zeroext %9)
  %10 = load ptr, ptr %4, align 8
  %11 = call noundef i32 @_ZNK17InterpreterOopMap9mask_sizeEv(ptr noundef nonnull align 8 dereferenceable(56) %10)
  call void @_ZN17InterpreterOopMap13set_mask_sizeEi(ptr noundef nonnull align 8 dereferenceable(56) %5, i32 noundef %11)
  %12 = load ptr, ptr %4, align 8
  %13 = call noundef i32 @_ZNK17InterpreterOopMap21expression_stack_sizeEv(ptr noundef nonnull align 8 dereferenceable(56) %12)
  call void @_ZN17InterpreterOopMap25set_expression_stack_sizeEi(ptr noundef nonnull align 8 dereferenceable(56) %5, i32 noundef %13)
  %14 = load ptr, ptr %4, align 8
  %15 = call noundef i32 @_ZNK17InterpreterOopMap8num_oopsEv(ptr noundef nonnull align 8 dereferenceable(56) %14)
  %16 = getelementptr inbounds %class.InterpreterOopMap, ptr %5, i32 0, i32 4
  store i32 %15, ptr %16, align 4
  %17 = load ptr, ptr %4, align 8
  %18 = call noundef i32 @_ZNK17InterpreterOopMap9mask_sizeEv(ptr noundef nonnull align 8 dereferenceable(56) %17)
  %19 = icmp sle i32 %18, 256
  br i1 %19, label %20, label %28

20:                                               ; preds = %2
  %21 = getelementptr inbounds %class.InterpreterOopMap, ptr %5, i32 0, i32 5
  %22 = getelementptr inbounds [4 x i64], ptr %21, i64 0, i64 0
  %23 = load ptr, ptr %4, align 8
  %24 = getelementptr inbounds %class.InterpreterOopMap, ptr %23, i32 0, i32 5
  %25 = getelementptr inbounds [4 x i64], ptr %24, i64 0, i64 0
  %26 = call noundef i64 @_ZNK17InterpreterOopMap14mask_word_sizeEv(ptr noundef nonnull align 8 dereferenceable(56) %5)
  %27 = mul i64 %26, 8
  call void @llvm.memcpy.p0.p0.i64(ptr align 8 %22, ptr align 8 %25, i64 %27, i1 false)
  br label %46

28:                                               ; preds = %2
  %29 = call noundef i64 @_ZNK17InterpreterOopMap14mask_word_sizeEv(ptr noundef nonnull align 8 dereferenceable(56) %5)
  %30 = mul i64 %29, 8
  %31 = call noundef ptr @_Z12AllocateHeapm8MEMFLAGSN17AllocFailStrategy13AllocFailEnumE(i64 noundef %30, i8 noundef zeroext 1, i32 noundef 0)
  %32 = ptrtoint ptr %31 to i64
  %33 = getelementptr inbounds %class.InterpreterOopMap, ptr %5, i32 0, i32 5
  %34 = getelementptr inbounds [4 x i64], ptr %33, i64 0, i64 0
  store i64 %32, ptr %34, align 8
  %35 = getelementptr inbounds %class.InterpreterOopMap, ptr %5, i32 0, i32 5
  %36 = getelementptr inbounds [4 x i64], ptr %35, i64 0, i64 0
  %37 = load i64, ptr %36, align 8
  %38 = inttoptr i64 %37 to ptr
  %39 = load ptr, ptr %4, align 8
  %40 = getelementptr inbounds %class.InterpreterOopMap, ptr %39, i32 0, i32 5
  %41 = getelementptr inbounds [4 x i64], ptr %40, i64 0, i64 0
  %42 = load i64, ptr %41, align 8
  %43 = inttoptr i64 %42 to ptr
  %44 = call noundef i64 @_ZNK17InterpreterOopMap14mask_word_sizeEv(ptr noundef nonnull align 8 dereferenceable(56) %5)
  %45 = mul i64 %44, 8
  call void @llvm.memcpy.p0.p0.i64(ptr align 1 %38, ptr align 1 %43, i64 %45, i1 false)
  br label %46

46:                                               ; preds = %28, %20
  ret void
}