; Function Attrs: mustprogress nounwind uwtable
define hidden void @_ZN17InterpreterOopMap9copy_fromEPK16OopMapCacheEntry(ptr nocapture noundef nonnull align 8 dereferenceable(56) %0, ptr nocapture noundef readonly %1) local_unnamed_addr #0 align 2 {
  %3 = load ptr, ptr %1, align 8
  store ptr %3, ptr %0, align 8
  %4 = getelementptr inbounds i8, ptr %1, i64 16
  %5 = load i16, ptr %4, align 8
  %6 = getelementptr inbounds i8, ptr %0, i64 16
  store i16 %5, ptr %6, align 8
  %7 = getelementptr inbounds i8, ptr %1, i64 8
  %8 = load i32, ptr %7, align 8
  %9 = getelementptr inbounds i8, ptr %0, i64 8
  store i32 %8, ptr %9, align 8
  %10 = getelementptr inbounds i8, ptr %1, i64 12
  %11 = load i32, ptr %10, align 4
  %12 = getelementptr inbounds i8, ptr %0, i64 12
  store i32 %11, ptr %12, align 4
  %13 = getelementptr inbounds i8, ptr %1, i64 20
  %14 = load i32, ptr %13, align 4
  %15 = getelementptr inbounds i8, ptr %0, i64 20
  store i32 %14, ptr %15, align 4
  %16 = load i32, ptr %7, align 8
  %17 = icmp slt i32 %16, 257
  br i1 %17, label %18, label %25

18:                                               ; preds = %2
  %19 = getelementptr inbounds i8, ptr %0, i64 24
  %20 = getelementptr inbounds i8, ptr %1, i64 24
  %21 = add nsw i32 %8, 63
  %22 = sdiv i32 %21, 64
  %23 = sext i32 %22 to i64
  %24 = shl nsw i64 %23, 3
  tail call void @llvm.memcpy.p0.p0.i64(ptr nonnull align 8 %19, ptr nonnull align 8 %20, i64 %24, i1 false)
  br label %41

25:                                               ; preds = %2
  %26 = add nsw i32 %8, 63
  %27 = sdiv i32 %26, 64
  %28 = sext i32 %27 to i64
  %29 = shl nsw i64 %28, 3
  %30 = tail call noundef ptr @_Z12AllocateHeapm8MEMFLAGSN17AllocFailStrategy13AllocFailEnumE(i64 noundef %29, i8 noundef zeroext 1, i32 noundef 0) #17
  %31 = ptrtoint ptr %30 to i64
  %32 = getelementptr inbounds i8, ptr %0, i64 24
  store i64 %31, ptr %32, align 8
  %33 = getelementptr inbounds i8, ptr %1, i64 24
  %34 = load i64, ptr %33, align 8
  %35 = inttoptr i64 %34 to ptr
  %36 = load i32, ptr %9, align 8
  %37 = add nsw i32 %36, 63
  %38 = sdiv i32 %37, 64
  %39 = sext i32 %38 to i64
  %40 = shl nsw i64 %39, 3
  tail call void @llvm.memcpy.p0.p0.i64(ptr align 1 %30, ptr align 1 %35, i64 %40, i1 false)
  br label %41

41:                                               ; preds = %25, %18
  ret void
}